(lp0
(dp1
S'image'
p2
NsS'code'
p3
S'epDev001_sh001'
p4
sS'type'
p5
S'Shot'
p6
sS'id'
p7
I10310
sS'description'
p8
Nsa(dp9
S'image'
p10
NsS'code'
p11
S'epDev001_mp001'
p12
sS'type'
p13
S'Shot'
p14
sS'id'
p15
I10311
sS'description'
p16
Nsa(dp17
S'image'
p18
NsS'code'
p19
S'epDev001_sh002'
p20
sS'type'
p21
S'Shot'
p22
sS'id'
p23
I10580
sS'description'
p24
Nsa.