(dp0
S'PROP_Name01'
p1
(lp2
(dp3
S'image'
p4
NsS'code'
p5
g1
sS'type'
p6
S'Asset'
p7
sS'id'
p8
I2362
sS'description'
p9
Nsa(lp10
(dp11
S'image'
p12
NsS'content'
p13
S'Design'
p14
sS'step.Step.list_order'
p15
I2
sS'task_assignees'
p16
(lp17
sS'sg_status_list'
p18
S'wtg'
p19
sS'type'
p20
S'Task'
p21
sS'id'
p22
I71921
sa(dp23
S'image'
p24
NsS'content'
p25
S'Model'
p26
sS'step.Step.list_order'
p27
I3
sS'task_assignees'
p28
(lp29
(dp30
S'type'
p31
S'HumanUser'
p32
sS'id'
p33
I165
sS'name'
p34
S'BBB Modelling'
p35
sasS'sg_status_list'
p36
S'wtg'
p37
sS'type'
p38
S'Task'
p39
sS'id'
p40
I71922
sa(dp41
S'image'
p42
NsS'content'
p43
S'Rig'
p44
sS'step.Step.list_order'
p45
I5
sS'task_assignees'
p46
(lp47
(dp48
S'type'
p49
S'HumanUser'
p50
sS'id'
p51
I164
sS'name'
p52
S'BBB Rigging'
p53
sasS'sg_status_list'
p54
S'wtg'
p55
sS'type'
p56
S'Task'
p57
sS'id'
p58
I71923
sa(dp59
S'image'
p60
NsS'content'
p61
S'Surface'
p62
sS'step.Step.list_order'
p63
I7
sS'task_assignees'
p64
(lp65
(dp66
S'type'
p67
S'HumanUser'
p68
sS'id'
p69
I165
sS'name'
p70
S'BBB Modelling'
p71
sasS'sg_status_list'
p72
S'wtg'
p73
sS'type'
p74
S'Task'
p75
sS'id'
p76
I71924
saasS'ENV_Name01'
p77
(lp78
(dp79
S'image'
p80
NsS'code'
p81
g77
sS'type'
p82
S'Asset'
p83
sS'id'
p84
I2361
sS'description'
p85
Nsa(lp86
(dp87
S'image'
p88
NsS'content'
p89
S'Design'
p90
sS'step.Step.list_order'
p91
I2
sS'task_assignees'
p92
(lp93
sS'sg_status_list'
p94
S'wtg'
p95
sS'type'
p96
S'Task'
p97
sS'id'
p98
I71917
sa(dp99
S'image'
p100
NsS'content'
p101
S'Model'
p102
sS'step.Step.list_order'
p103
I3
sS'task_assignees'
p104
(lp105
(dp106
S'type'
p107
S'HumanUser'
p108
sS'id'
p109
I165
sS'name'
p110
S'BBB Modelling'
p111
sasS'sg_status_list'
p112
S'wtg'
p113
sS'type'
p114
S'Task'
p115
sS'id'
p116
I71918
sa(dp117
S'image'
p118
NsS'content'
p119
S'Surface'
p120
sS'step.Step.list_order'
p121
I7
sS'task_assignees'
p122
(lp123
(dp124
S'type'
p125
S'HumanUser'
p126
sS'id'
p127
I165
sS'name'
p128
S'BBB Modelling'
p129
sasS'sg_status_list'
p130
S'wtg'
p131
sS'type'
p132
S'Task'
p133
sS'id'
p134
I71919
sa(dp135
S'image'
p136
NsS'content'
p137
S'Assembly Reference'
p138
sS'step.Step.list_order'
p139
I1
sS'task_assignees'
p140
(lp141
sS'sg_status_list'
p142
S'wtg'
p143
sS'type'
p144
S'Task'
p145
sS'id'
p146
I71920
saasS'CHAR_Name01'
p147
(lp148
(dp149
S'image'
p150
NsS'code'
p151
g147
sS'type'
p152
S'Asset'
p153
sS'id'
p154
I2360
sS'description'
p155
Nsa(lp156
(dp157
S'image'
p158
S'https://bubblebathbay.shotgunstudio.com/thumbnail/api_image/202956?AccessKeyId=kocZCua37NinhUZLUmRf&Expires=1410148233&Signature=yPKHV8IyXIDxKBWaU5SF8m69eztx%2Bun%2BJP9RR4YuS4s%3D'
p159
sS'content'
p160
S'Design'
p161
sS'step.Step.list_order'
p162
I2
sS'task_assignees'
p163
(lp164
sS'sg_status_list'
p165
S'wtg'
p166
sS'type'
p167
S'Task'
p168
sS'id'
p169
I71913
sa(dp170
S'image'
p171
S'https://bubblebathbay.shotgunstudio.com/thumbnail/api_image/202956?AccessKeyId=kocZCua37NinhUZLUmRf&Expires=1410148233&Signature=yPKHV8IyXIDxKBWaU5SF8m69eztx%2Bun%2BJP9RR4YuS4s%3D'
p172
sS'content'
p173
S'Model'
p174
sS'step.Step.list_order'
p175
I3
sS'task_assignees'
p176
(lp177
(dp178
S'type'
p179
S'HumanUser'
p180
sS'id'
p181
I165
sS'name'
p182
S'BBB Modelling'
p183
sasS'sg_status_list'
p184
S'wtg'
p185
sS'type'
p186
S'Task'
p187
sS'id'
p188
I71914
sa(dp189
S'image'
p190
S'https://bubblebathbay.shotgunstudio.com/thumbnail/api_image/202956?AccessKeyId=kocZCua37NinhUZLUmRf&Expires=1410148233&Signature=yPKHV8IyXIDxKBWaU5SF8m69eztx%2Bun%2BJP9RR4YuS4s%3D'
p191
sS'content'
p192
S'Rig'
p193
sS'step.Step.list_order'
p194
I5
sS'task_assignees'
p195
(lp196
(dp197
S'type'
p198
S'HumanUser'
p199
sS'id'
p200
I164
sS'name'
p201
S'BBB Rigging'
p202
sasS'sg_status_list'
p203
S'wtg'
p204
sS'type'
p205
S'Task'
p206
sS'id'
p207
I71915
sa(dp208
S'image'
p209
S'https://bubblebathbay.shotgunstudio.com/thumbnail/api_image/202956?AccessKeyId=kocZCua37NinhUZLUmRf&Expires=1410148233&Signature=yPKHV8IyXIDxKBWaU5SF8m69eztx%2Bun%2BJP9RR4YuS4s%3D'
p210
sS'content'
p211
S'Surface'
p212
sS'step.Step.list_order'
p213
I7
sS'task_assignees'
p214
(lp215
(dp216
S'type'
p217
S'HumanUser'
p218
sS'id'
p219
I165
sS'name'
p220
S'BBB Modelling'
p221
sasS'sg_status_list'
p222
S'wtg'
p223
sS'type'
p224
S'Task'
p225
sS'id'
p226
I71916
saasS'epDev001_mp001'
p227
(lp228
(dp229
S'image'
p230
NsS'code'
p231
g227
sS'type'
p232
S'Shot'
p233
sS'id'
p234
I10311
sS'description'
p235
Nsa(lp236
(dp237
S'image'
p238
NsS'content'
p239
S'Mprep'
p240
sS'step.Step.list_order'
p241
I2
sS'task_assignees'
p242
(lp243
sS'sg_status_list'
p244
S'wtg'
p245
sS'type'
p246
S'Task'
p247
sS'id'
p248
I71925
saasS'epDev001_sh001'
p249
(lp250
(dp251
S'image'
p252
NsS'code'
p253
g249
sS'type'
p254
S'Shot'
p255
sS'id'
p256
I10310
sS'description'
p257
Nsa(lp258
(dp259
S'image'
p260
NsS'content'
p261
S'StoryBoard'
p262
sS'step.Step.list_order'
p263
I1
sS'task_assignees'
p264
(lp265
(dp266
S'type'
p267
S'HumanUser'
p268
sS'id'
p269
I138
sS'name'
p270
S'BBB Assembly'
p271
sasS'sg_status_list'
p272
S'wtg'
p273
sS'type'
p274
S'Task'
p275
sS'id'
p276
I71926
sa(dp277
S'image'
p278
NsS'content'
p279
S'Comp'
p280
sS'step.Step.list_order'
p281
I8
sS'task_assignees'
p282
(lp283
(dp284
S'type'
p285
S'HumanUser'
p286
sS'id'
p287
I138
sS'name'
p288
S'BBB Assembly'
p289
sasS'sg_status_list'
p290
S'wtg'
p291
sS'type'
p292
S'Task'
p293
sS'id'
p294
I71927
sa(dp295
S'image'
p296
NsS'content'
p297
S'Anm'
p298
sS'step.Step.list_order'
p299
I3
sS'task_assignees'
p300
(lp301
(dp302
S'type'
p303
S'HumanUser'
p304
sS'id'
p305
I152
sS'name'
p306
S'BBB Animation'
p307
sasS'sg_status_list'
p308
S'wtg'
p309
sS'type'
p310
S'Task'
p311
sS'id'
p312
I71928
sa(dp313
S'image'
p314
NsS'content'
p315
S'Light'
p316
sS'step.Step.list_order'
p317
I7
sS'task_assignees'
p318
(lp319
(dp320
S'type'
p321
S'HumanUser'
p322
sS'id'
p323
I138
sS'name'
p324
S'BBB Assembly'
p325
sasS'sg_status_list'
p326
S'wtg'
p327
sS'type'
p328
S'Task'
p329
sS'id'
p330
I71929
sa(dp331
S'image'
p332
NsS'content'
p333
S'FX'
p334
sS'step.Step.list_order'
p335
I5
sS'task_assignees'
p336
(lp337
(dp338
S'type'
p339
S'HumanUser'
p340
sS'id'
p341
I138
sS'name'
p342
S'BBB Assembly'
p343
sasS'sg_status_list'
p344
S'wtg'
p345
sS'type'
p346
S'Task'
p347
sS'id'
p348
I71930
sa(dp349
S'image'
p350
NsS'content'
p351
S'Layout'
p352
sS'step.Step.list_order'
p353
I2
sS'task_assignees'
p354
(lp355
(dp356
S'type'
p357
S'HumanUser'
p358
sS'id'
p359
I152
sS'name'
p360
S'BBB Animation'
p361
sasS'sg_status_list'
p362
S'wtg'
p363
sS'type'
p364
S'Task'
p365
sS'id'
p366
I71931
sa(dp367
S'image'
p368
NsS'content'
p369
S'Additional Fx'
p370
sS'step.Step.list_order'
p371
I6
sS'task_assignees'
p372
(lp373
(dp374
S'type'
p375
S'HumanUser'
p376
sS'id'
p377
I138
sS'name'
p378
S'BBB Assembly'
p379
sasS'sg_status_list'
p380
S'wtg'
p381
sS'type'
p382
S'Task'
p383
sS'id'
p384
I71932
saas.